target datalayout = "e-m:e-p270:32:32-p271:32:32-p272:64:64-i64:64-i128:128-f80:128-n8:16:32:64-S128"
target triple = "x86_64-pc-linux-gnu"

%"struct.Luau::detail::ContainsFunctionCall" = type <{ %"class.Luau::AstVisitor", i8, i8, [6 x i8] }>
%"class.Luau::AstVisitor" = type { ptr }

; Function Attrs: mustprogress nounwind uwtable
define linkonce_odr dso_local void @_ZN4Luau10AstVisitorD2Ev(ptr noundef nonnull align 8 dereferenceable(8) %0) unnamed_addr #1 comdat align 2 {
  %2 = alloca ptr, align 8
  store ptr %0, ptr %2, align 8
  ret void
}

; Function Attrs: mustprogress nounwind uwtable
define linkonce_odr dso_local void @_ZN4Luau10AstVisitorC2Ev(ptr noundef nonnull align 8 dereferenceable(8) %0) unnamed_addr #1 comdat align 2 {
  %2 = alloca ptr, align 8
  store ptr %0, ptr %2, align 8
  %3 = load ptr, ptr %2, align 8
  store ptr getelementptr inbounds inrange(-16, 472) ({ [61 x ptr] }, ptr @_ZTVN4Luau10AstVisitorE, i32 0, i32 0, i32 2), ptr %3, align 8
  ret void
}

; Function Attrs: mustprogress nounwind uwtable
define linkonce_odr dso_local void @_ZN4Luau6detail20ContainsFunctionCallD2Ev(ptr noundef nonnull align 8 dereferenceable(10) %0) unnamed_addr #1 comdat align 2 {
  %2 = alloca ptr, align 8
  store ptr %0, ptr %2, align 8
  %3 = load ptr, ptr %2, align 8
  call void @_ZN4Luau10AstVisitorD2Ev(ptr noundef nonnull align 8 dereferenceable(8) %3) #12
  ret void
}

; Function Attrs: mustprogress nounwind uwtable
define linkonce_odr dso_local void @_ZN4Luau6detail20ContainsFunctionCallC2Eb(ptr noundef nonnull align 8 dereferenceable(10) %0, i1 noundef zeroext %1) unnamed_addr #1 comdat align 2 {
  %3 = alloca ptr, align 8
  %4 = alloca i8, align 1
  store ptr %0, ptr %3, align 8
  %5 = zext i1 %1 to i8
  store i8 %5, ptr %4, align 1
  %6 = load ptr, ptr %3, align 8
  call void @_ZN4Luau10AstVisitorC2Ev(ptr noundef nonnull align 8 dereferenceable(8) %6) #12
  store ptr getelementptr inbounds inrange(-16, 472) ({ [61 x ptr] }, ptr @_ZTVN4Luau6detail20ContainsFunctionCallE, i32 0, i32 0, i32 2), ptr %6, align 8
  %7 = getelementptr inbounds %"struct.Luau::detail::ContainsFunctionCall", ptr %6, i32 0, i32 1
  %8 = load i8, ptr %4, align 1
  %9 = trunc i8 %8 to i1
  %10 = zext i1 %9 to i8
  store i8 %10, ptr %7, align 8
  %11 = getelementptr inbounds %"struct.Luau::detail::ContainsFunctionCall", ptr %6, i32 0, i32 2
  store i8 0, ptr %11, align 1
  ret void
}

; Function Attrs: mustprogress uwtable
define dso_local noundef zeroext i1 @_ZN4Luau28containsFunctionCallOrReturnERKNS_7AstStatE(ptr noundef nonnull align 8 dereferenceable(29) %0) #2 personality ptr @__gxx_personality_v0 {
  %2 = alloca ptr, align 8
  %3 = alloca %"struct.Luau::detail::ContainsFunctionCall", align 8
  %4 = alloca ptr, align 8
  %5 = alloca i32, align 4
  store ptr %0, ptr %2, align 8
  call void @_ZN4Luau6detail20ContainsFunctionCallC2Eb(ptr noundef nonnull align 8 dereferenceable(10) %3, i1 noundef zeroext true)
  %6 = load ptr, ptr %2, align 8
  %7 = load ptr, ptr %6, align 8
  %8 = getelementptr inbounds ptr, ptr %7, i64 0
  %9 = load ptr, ptr %8, align 8
  invoke void %9(ptr noundef nonnull align 8 dereferenceable(28) %6, ptr noundef %3)
          to label %10 unwind label %14

10:                                               ; preds = %1
  %11 = getelementptr inbounds %"struct.Luau::detail::ContainsFunctionCall", ptr %3, i32 0, i32 2
  %12 = load i8, ptr %11, align 1
  %13 = trunc i8 %12 to i1
  call void @_ZN4Luau6detail20ContainsFunctionCallD2Ev(ptr noundef nonnull align 8 dereferenceable(10) %3) #12
  ret i1 %13

14:                                               ; preds = %1
  %15 = landingpad { ptr, i32 }
          cleanup
  %16 = extractvalue { ptr, i32 } %15, 0
  store ptr %16, ptr %4, align 8
  %17 = extractvalue { ptr, i32 } %15, 1
  store i32 %17, ptr %5, align 4
  call void @_ZN4Luau6detail20ContainsFunctionCallD2Ev(ptr noundef nonnull align 8 dereferenceable(10) %3) #12
  br label %18

18:                                               ; preds = %14
  %19 = load ptr, ptr %4, align 8
  %20 = load i32, ptr %5, align 4
  %21 = insertvalue { ptr, i32 } poison, ptr %19, 0
  %22 = insertvalue { ptr, i32 } %21, i32 %20, 1
  resume { ptr, i32 } %22
}