; Function Attrs: mustprogress uwtable
define dso_local noundef zeroext i1 @_ZN4Luau28containsFunctionCallOrReturnERKNS_7AstStatE(ptr noundef nonnull align 8 dereferenceable(29) %0) local_unnamed_addr #2 personality ptr @__gxx_personality_v0 {
  %2 = alloca %"struct.Luau::detail::ContainsFunctionCall", align 8
  store ptr getelementptr inbounds inrange(-16, 472) (i8, ptr @_ZTVN4Luau6detail20ContainsFunctionCallE, i64 16), ptr %2, align 8
  %3 = getelementptr inbounds i8, ptr %2, i64 8
  store i8 1, ptr %3, align 8
  %4 = getelementptr inbounds i8, ptr %2, i64 9
  store i8 0, ptr %4, align 1
  %5 = load ptr, ptr %0, align 8
  %6 = load ptr, ptr %5, align 8
  call void %6(ptr noundef nonnull align 8 dereferenceable(28) %0, ptr noundef nonnull %2)
  %7 = load i8, ptr %4, align 1
  %8 = trunc i8 %7 to i1
  ret i1 %8
}